target datalayout = "e-m:e-p270:32:32-p271:32:32-p272:64:64-i64:64-i128:128-f80:128-n8:16:32:64-S128"
target triple = "x86_64-unknown-linux-gnu"

%struct.hdr_histogram = type { i64, i64, i32, i32, i32, i32, i64, i32, i32, i64, i64, i32, double, i32, i64, ptr }

; Function Attrs: nounwind uwtable
define dso_local i64 @hdr_get_memory_size(ptr noundef %h) #0 {
entry:
  %h.addr = alloca ptr, align 8
  store ptr %h, ptr %h.addr, align 8
  %0 = load ptr, ptr %h.addr, align 8
  %counts_len = getelementptr inbounds %struct.hdr_histogram, ptr %0, i32 0, i32 13
  %1 = load i32, ptr %counts_len, align 8
  %conv = sext i32 %1 to i64
  %mul = mul i64 %conv, 8
  %add = add i64 104, %mul
  ret i64 %add
}