; Function Attrs: mustprogress nofree norecurse nosync nounwind willreturn memory(argmem: read) uwtable
define dso_local i64 @hdr_get_memory_size(ptr nocapture noundef readonly %h) local_unnamed_addr #0 {
entry:
  %counts_len = getelementptr inbounds i8, ptr %h, i64 80
  %0 = load i32, ptr %counts_len, align 8
  %conv = sext i32 %0 to i64
  %mul = shl nsw i64 %conv, 3
  %add = add nsw i64 %mul, 104
  ret i64 %add
}